; Function Attrs: mustprogress nofree norecurse nosync nounwind willreturn memory(read, inaccessiblemem: none) uwtable
define hidden noundef zeroext i1 @_ZNK3euf9ac_plugin9is_sortedERKNS0_10monomial_tE(ptr noundef nonnull readonly align 8 captures(none) dereferenceable(432) %0, ptr noundef nonnull readonly align 8 captures(none) dereferenceable(24) %1) local_unnamed_addr #9 align 2 {
  %3 = getelementptr inbounds nuw i8, ptr %1, i64 8
  %4 = load i64, ptr %3, align 8, !tbaa !230
  %5 = getelementptr inbounds nuw i8, ptr %0, i64 144
  %6 = load i64, ptr %5, align 8, !tbaa !77
  %7 = icmp eq i64 %4, %6
  br i1 %7, label %.loopexit, label %8

8:                                                ; preds = %2
  %9 = load ptr, ptr %1, align 8, !tbaa !99
  %10 = icmp eq ptr %9, null
  br i1 %10, label %_ZNK3euf9ac_plugin10monomial_t4sizeEv.exit, label %11

11:                                               ; preds = %8
  %12 = getelementptr inbounds i8, ptr %9, i64 -4
  %13 = load i32, ptr %12, align 4, !tbaa !109
  %14 = zext i32 %13 to i64
  br label %_ZNK3euf9ac_plugin10monomial_t4sizeEv.exit

_ZNK3euf9ac_plugin10monomial_t4sizeEv.exit:       ; preds = %8, %11
  %.0.i.i = phi i64 [ %14, %11 ], [ 0, %8 ]
  %invariant.gep = getelementptr i8, ptr %9, i64 -16
  br label %15

15:                                               ; preds = %17, %_ZNK3euf9ac_plugin10monomial_t4sizeEv.exit
  %indvars.iv = phi i64 [ %18, %17 ], [ %.0.i.i, %_ZNK3euf9ac_plugin10monomial_t4sizeEv.exit ]
  %16 = icmp ult i64 %indvars.iv, 2
  br i1 %16, label %.loopexit, label %17

17:                                               ; preds = %15
  %18 = add nsw i64 %indvars.iv, -1
  %gep = getelementptr ptr, ptr %invariant.gep, i64 %indvars.iv
  %19 = load ptr, ptr %gep, align 8, !tbaa !149
  %20 = getelementptr inbounds nuw i8, ptr %19, i64 8
  %21 = load ptr, ptr %20, align 8, !tbaa !158
  %22 = load ptr, ptr %21, align 8, !tbaa !160
  %23 = load ptr, ptr %22, align 8, !tbaa !123
  %24 = load i32, ptr %23, align 4, !tbaa !139
  %25 = getelementptr inbounds nuw ptr, ptr %9, i64 %18
  %26 = load ptr, ptr %25, align 8, !tbaa !149
  %27 = getelementptr inbounds nuw i8, ptr %26, i64 8
  %28 = load ptr, ptr %27, align 8, !tbaa !158
  %29 = load ptr, ptr %28, align 8, !tbaa !160
  %30 = load ptr, ptr %29, align 8, !tbaa !123
  %31 = load i32, ptr %30, align 4, !tbaa !139
  %32 = icmp ugt i32 %24, %31
  br i1 %32, label %.loopexit, label %15, !llvm.loop !233

.loopexit:                                        ; preds = %15, %17, %2
  %.010 = phi i1 [ true, %2 ], [ %16, %17 ], [ %16, %15 ]
  ret i1 %.010
}